; Function Attrs: mustprogress nounwind uwtable
define internal void @"_ZNSt17_Function_handlerIFvPN6hermes6ESTree4NodeENS0_5irgen17ControlFlowChangeEPNS0_10BasicBlockEEZZNS4_11ESTreeIRGen15genTryStatementEPNS1_16TryStatementNodeEENK3$_0clEvEUlS3_S5_S7_E_E9_M_invokeERKSt9_Any_dataOS3_OS5_OS7_"(ptr noundef nonnull readonly align 8 captures(none) dereferenceable(16) %__functor, ptr noundef nonnull readonly align 8 captures(none) dereferenceable(8) %__args, ptr nonnull readonly align 4 captures(none) %__args1, ptr nonnull readnone align 8 captures(none) %__args3) #0 align 2 {
entry:
  %call.val = load ptr, ptr %__functor, align 8
  %__args.val = load ptr, ptr %__args, align 8
  %0 = getelementptr i8, ptr %__args.val, i64 64
  %__args.val.val = load ptr, ptr %0, align 8
  tail call void @_ZN6hermes5irgen11ESTreeIRGen12genStatementEPNS_6ESTree4NodeENS1_10IsLoopBodyE(ptr noundef nonnull align 8 dereferenceable(200) %call.val, ptr noundef %__args.val.val, i32 noundef 0) #11
  ret void
}